; ModuleID = '54/850.c'
source_filename = "54/850.c"
target datalayout = "e-m:e-p270:32:32-p271:32:32-p272:64:64-i64:64-f80:128-n8:16:32:64-S128"
target triple = "x86_64-pc-linux-gnu"

@.str = private unnamed_addr constant [7 x i8] c"%d %d\0A\00", align 1
@.str.1 = private unnamed_addr constant [3 x i8] c"%d\00", align 1

; Function Attrs: noinline nounwind uwtable
define dso_local void @main() #0 {
  %1 = alloca i32, align 4
  %2 = alloca i32, align 4
  %3 = alloca i32, align 4
  %4 = alloca i32, align 4
  %5 = alloca [100 x i32], align 16
  %6 = call i32 (i8*, ...) @__isoc99_scanf(i8* getelementptr inbounds ([7 x i8], [7 x i8]* @.str, i64 0, i64 0), i32* %1, i32* %2)
  store i32 1, i32* %4, align 4
  br label %7

7:                                                ; preds = %55, %0
  %8 = load i32, i32* %4, align 4
  %9 = load i32, i32* %1, align 4
  %10 = sext i32 %9 to i64
  %11 = getelementptr inbounds [100 x i32], [100 x i32]* %5, i64 0, i64 %10
  store i32 %8, i32* %11, align 4
  %12 = load i32, i32* %1, align 4
  store i32 %12, i32* %3, align 4
  br label %13

13:                                               ; preds = %47, %7
  %14 = load i32, i32* %3, align 4
  %15 = icmp sge i32 %14, 2
  br i1 %15, label %16, label %50

16:                                               ; preds = %13
  %17 = load i32, i32* %1, align 4
  %18 = load i32, i32* %3, align 4
  %19 = sext i32 %18 to i64
  %20 = getelementptr inbounds [100 x i32], [100 x i32]* %5, i64 0, i64 %19
  %21 = load i32, i32* %20, align 4
  %22 = mul nsw i32 %17, %21
  %23 = load i32, i32* %2, align 4
  %24 = add nsw i32 %22, %23
  %25 = load i32, i32* %1, align 4
  %26 = sub nsw i32 %25, 1
  %27 = srem i32 %24, %26
  %28 = icmp eq i32 %27, 0
  br i1 %28, label %29, label %45

29:                                               ; preds = %16
  %30 = load i32, i32* %1, align 4
  %31 = load i32, i32* %3, align 4
  %32 = sext i32 %31 to i64
  %33 = getelementptr inbounds [100 x i32], [100 x i32]* %5, i64 0, i64 %32
  %34 = load i32, i32* %33, align 4
  %35 = mul nsw i32 %30, %34
  %36 = load i32, i32* %2, align 4
  %37 = add nsw i32 %35, %36
  %38 = load i32, i32* %1, align 4
  %39 = sub nsw i32 %38, 1
  %40 = sdiv i32 %37, %39
  %41 = load i32, i32* %3, align 4
  %42 = sub nsw i32 %41, 1
  %43 = sext i32 %42 to i64
  %44 = getelementptr inbounds [100 x i32], [100 x i32]* %5, i64 0, i64 %43
  store i32 %40, i32* %44, align 4
  br label %46

45:                                               ; preds = %16
  br label %50

46:                                               ; preds = %29
  br label %47

47:                                               ; preds = %46
  %48 = load i32, i32* %3, align 4
  %49 = add nsw i32 %48, -1
  store i32 %49, i32* %3, align 4
  br label %13

50:                                               ; preds = %45, %13
  %51 = load i32, i32* %3, align 4
  %52 = icmp eq i32 %51, 1
  br i1 %52, label %53, label %54

53:                                               ; preds = %50
  br label %58

54:                                               ; preds = %50
  br label %55

55:                                               ; preds = %54
  %56 = load i32, i32* %4, align 4
  %57 = add nsw i32 %56, 1
  store i32 %57, i32* %4, align 4
  br label %7

58:                                               ; preds = %53
  %59 = load i32, i32* %1, align 4
  %60 = getelementptr inbounds [100 x i32], [100 x i32]* %5, i64 0, i64 1
  %61 = load i32, i32* %60, align 4
  %62 = mul nsw i32 %59, %61
  %63 = load i32, i32* %2, align 4
  %64 = add nsw i32 %62, %63
  %65 = getelementptr inbounds [100 x i32], [100 x i32]* %5, i64 0, i64 0
  store i32 %64, i32* %65, align 16
  %66 = getelementptr inbounds [100 x i32], [100 x i32]* %5, i64 0, i64 0
  %67 = load i32, i32* %66, align 16
  %68 = call i32 (i8*, ...) @printf(i8* getelementptr inbounds ([3 x i8], [3 x i8]* @.str.1, i64 0, i64 0), i32 %67)
  ret void
}

declare dso_local i32 @__isoc99_scanf(i8*, ...) #1

declare dso_local i32 @printf(i8*, ...) #1


!llvm.module.flags = !{!0}
!llvm.ident = !{!1}

!0 = !{i32 1, !"wchar_size", i32 4}
!1 = !{!"clang version 10.0.0-4ubuntu1 "}
